target datalayout = "e-m:e-p270:32:32-p271:32:32-p272:64:64-i64:64-i128:128-f80:128-n8:16:32:64-S128"
target triple = "x86_64-pc-linux-gnu"

%struct.Curl_handler = type { ptr, ptr, ptr, ptr, ptr, ptr, ptr, ptr, ptr, ptr, ptr, ptr, ptr, ptr, ptr, ptr, ptr, i32, i32, i32, i32 }

; Function Attrs: nounwind uwtable
define dso_local ptr @Curl_getn_scheme_handler(ptr noundef %0, i64 noundef %1) #0 {
  %3 = alloca ptr, align 8
  %4 = alloca ptr, align 8
  %5 = alloca i64, align 8
  %6 = alloca ptr, align 8
  %7 = alloca i64, align 8
  %8 = alloca ptr, align 8
  %9 = alloca i32, align 4
  %10 = alloca i32, align 4
  store ptr %0, ptr %4, align 8, !tbaa !12
  store i64 %1, ptr %5, align 8, !tbaa !182
  %11 = load i64, ptr %5, align 8, !tbaa !182
  %12 = icmp ne i64 %11, 0
  br i1 %12, label %13, label %65

13:                                               ; preds = %2
  %14 = load i64, ptr %5, align 8, !tbaa !182
  %15 = icmp ule i64 %14, 7
  br i1 %15, label %16, label %65

16:                                               ; preds = %13
  call void @llvm.lifetime.start.p0(i64 8, ptr %6) #8
  %17 = load ptr, ptr %4, align 8, !tbaa !12
  store ptr %17, ptr %6, align 8, !tbaa !12
  call void @llvm.lifetime.start.p0(i64 8, ptr %7) #8
  %18 = load i64, ptr %5, align 8, !tbaa !182
  store i64 %18, ptr %7, align 8, !tbaa !182
  call void @llvm.lifetime.start.p0(i64 8, ptr %8) #8
  call void @llvm.lifetime.start.p0(i64 4, ptr %9) #8
  store i32 978, ptr %9, align 4, !tbaa !9
  br label %19

19:                                               ; preds = %22, %16
  %20 = load i64, ptr %7, align 8, !tbaa !182
  %21 = icmp ne i64 %20, 0
  br i1 %21, label %22, label %35

22:                                               ; preds = %19
  %23 = load i32, ptr %9, align 4, !tbaa !9
  %24 = shl i32 %23, 5
  store i32 %24, ptr %9, align 4, !tbaa !9
  %25 = load ptr, ptr %6, align 8, !tbaa !12
  %26 = load i8, ptr %25, align 1, !tbaa !236
  %27 = call signext i8 @Curl_raw_tolower(i8 noundef signext %26)
  %28 = sext i8 %27 to i32
  %29 = load i32, ptr %9, align 4, !tbaa !9
  %30 = add i32 %29, %28
  store i32 %30, ptr %9, align 4, !tbaa !9
  %31 = load ptr, ptr %6, align 8, !tbaa !12
  %32 = getelementptr inbounds nuw i8, ptr %31, i32 1
  store ptr %32, ptr %6, align 8, !tbaa !12
  %33 = load i64, ptr %7, align 8, !tbaa !182
  %34 = add i64 %33, -1
  store i64 %34, ptr %7, align 8, !tbaa !182
  br label %19, !llvm.loop !237

35:                                               ; preds = %19
  %36 = load i32, ptr %9, align 4, !tbaa !9
  %37 = urem i32 %36, 67
  %38 = zext i32 %37 to i64
  %39 = getelementptr inbounds nuw [67 x ptr], ptr @Curl_getn_scheme_handler.protocols, i64 0, i64 %38
  %40 = load ptr, ptr %39, align 8, !tbaa !238
  store ptr %40, ptr %8, align 8, !tbaa !238
  %41 = load ptr, ptr %8, align 8, !tbaa !238
  %42 = icmp ne ptr %41, null
  br i1 %42, label %43, label %61

43:                                               ; preds = %35
  %44 = load ptr, ptr %4, align 8, !tbaa !12
  %45 = load ptr, ptr %8, align 8, !tbaa !238
  %46 = getelementptr inbounds nuw %struct.Curl_handler, ptr %45, i32 0, i32 0
  %47 = load ptr, ptr %46, align 8, !tbaa !239
  %48 = load i64, ptr %5, align 8, !tbaa !182
  %49 = call i32 @curl_strnequal(ptr noundef %44, ptr noundef %47, i64 noundef %48)
  %50 = icmp ne i32 %49, 0
  br i1 %50, label %51, label %61

51:                                               ; preds = %43
  %52 = load ptr, ptr %8, align 8, !tbaa !238
  %53 = getelementptr inbounds nuw %struct.Curl_handler, ptr %52, i32 0, i32 0
  %54 = load ptr, ptr %53, align 8, !tbaa !239
  %55 = load i64, ptr %5, align 8, !tbaa !182
  %56 = getelementptr inbounds nuw i8, ptr %54, i64 %55
  %57 = load i8, ptr %56, align 1, !tbaa !236
  %58 = icmp ne i8 %57, 0
  br i1 %58, label %61, label %59

59:                                               ; preds = %51
  %60 = load ptr, ptr %8, align 8, !tbaa !238
  store ptr %60, ptr %3, align 8
  store i32 1, ptr %10, align 4
  br label %62

61:                                               ; preds = %51, %43, %35
  store i32 0, ptr %10, align 4
  br label %62

62:                                               ; preds = %61, %59
  call void @llvm.lifetime.end.p0(i64 4, ptr %9) #8
  call void @llvm.lifetime.end.p0(i64 8, ptr %8) #8
  call void @llvm.lifetime.end.p0(i64 8, ptr %7) #8
  call void @llvm.lifetime.end.p0(i64 8, ptr %6) #8
  %63 = load i32, ptr %10, align 4
  switch i32 %63, label %68 [
    i32 0, label %64
    i32 1, label %66
  ]

64:                                               ; preds = %62
  br label %65

65:                                               ; preds = %64, %13, %2
  store ptr null, ptr %3, align 8
  br label %66

66:                                               ; preds = %65, %62
  %67 = load ptr, ptr %3, align 8
  ret ptr %67

68:                                               ; preds = %62
  unreachable
}

; Function Attrs: nounwind uwtable
define dso_local ptr @Curl_get_scheme_handler(ptr noundef %0) #0 {
  %2 = alloca ptr, align 8
  store ptr %0, ptr %2, align 8, !tbaa !12
  %3 = load ptr, ptr %2, align 8, !tbaa !12
  %4 = load ptr, ptr %2, align 8, !tbaa !12
  %5 = call i64 @strlen(ptr noundef %4) #9
  %6 = call ptr @Curl_getn_scheme_handler(ptr noundef %3, i64 noundef %5)
  ret ptr %6
}