; Function Attrs: nounwind uwtable
define dso_local ptr @Curl_get_scheme_handler(ptr noundef %0) local_unnamed_addr #0 {
  %2 = tail call i64 @strlen(ptr noundef nonnull dereferenceable(1) %0) #13
  %3 = add i64 %2, -1
  %or.cond.i = icmp ult i64 %3, 7
  br i1 %or.cond.i, label %.lr.ph.i, label %Curl_getn_scheme_handler.exit

.lr.ph.i:                                         ; preds = %1, %.lr.ph.i
  %.02034.i = phi i32 [ %8, %.lr.ph.i ], [ 978, %1 ]
  %.02233.i = phi i64 [ %10, %.lr.ph.i ], [ %2, %1 ]
  %.02332.i = phi ptr [ %9, %.lr.ph.i ], [ %0, %1 ]
  %4 = shl i32 %.02034.i, 5
  %5 = load i8, ptr %.02332.i, align 1, !tbaa !219
  %6 = tail call signext i8 @Curl_raw_tolower(i8 noundef signext %5) #12
  %7 = sext i8 %6 to i32
  %8 = add i32 %4, %7
  %9 = getelementptr inbounds nuw i8, ptr %.02332.i, i64 1
  %10 = add nsw i64 %.02233.i, -1
  %.not.i = icmp eq i64 %10, 0
  br i1 %.not.i, label %._crit_edge.i, label %.lr.ph.i, !llvm.loop !220

._crit_edge.i:                                    ; preds = %.lr.ph.i
  %11 = urem i32 %8, 67
  %12 = zext nneg i32 %11 to i64
  %13 = getelementptr inbounds nuw [67 x ptr], ptr @Curl_getn_scheme_handler.protocols, i64 0, i64 %12
  %14 = load ptr, ptr %13, align 8, !tbaa !221
  %.not26.i = icmp eq ptr %14, null
  br i1 %.not26.i, label %.thread.i, label %15

15:                                               ; preds = %._crit_edge.i
  %16 = load ptr, ptr %14, align 8, !tbaa !222
  %17 = tail call i32 @curl_strnequal(ptr noundef nonnull %0, ptr noundef %16, i64 noundef %2) #12
  %.not27.i = icmp eq i32 %17, 0
  br i1 %.not27.i, label %.thread.i, label %18

18:                                               ; preds = %15
  %19 = load ptr, ptr %14, align 8, !tbaa !222
  %20 = getelementptr inbounds nuw i8, ptr %19, i64 %2
  %21 = load i8, ptr %20, align 1, !tbaa !219
  %.not28.i = icmp eq i8 %21, 0
  br i1 %.not28.i, label %Curl_getn_scheme_handler.exit, label %.thread.i

.thread.i:                                        ; preds = %18, %15, %._crit_edge.i
  br label %Curl_getn_scheme_handler.exit

Curl_getn_scheme_handler.exit:                    ; preds = %1, %18, %.thread.i
  %.1.i = phi ptr [ %14, %18 ], [ null, %.thread.i ], [ null, %1 ]
  ret ptr %.1.i
}